target datalayout = "e-m:e-p270:32:32-p271:32:32-p272:64:64-i64:64-i128:128-f80:128-n8:16:32:64-S128"
target triple = "x86_64-pc-linux-gnu"

%struct.CONF_VALUE = type { ptr, ptr, ptr }

; Function Attrs: inlinehint nounwind uwtable
define internal ptr @ossl_check_OPENSSL_CSTRING_type(ptr noundef %0) #3 {
  %2 = alloca ptr, align 8
  store ptr %0, ptr %2, align 8, !tbaa !19
  %3 = load ptr, ptr %2, align 8, !tbaa !19
  ret ptr %3
}

; Function Attrs: inlinehint nounwind uwtable
define internal ptr @ossl_check_OPENSSL_CSTRING_sk_type(ptr noundef %0) #3 {
  %2 = alloca ptr, align 8
  store ptr %0, ptr %2, align 8, !tbaa !43
  %3 = load ptr, ptr %2, align 8, !tbaa !43
  ret ptr %3
}

; Function Attrs: nounwind uwtable
define internal void @collect_section_name(ptr noundef %0, ptr noundef %1) #0 {
  %3 = alloca ptr, align 8
  %4 = alloca ptr, align 8
  store ptr %0, ptr %3, align 8, !tbaa !31
  store ptr %1, ptr %4, align 8, !tbaa !43
  %5 = load ptr, ptr %3, align 8, !tbaa !31
  %6 = getelementptr inbounds nuw %struct.CONF_VALUE, ptr %5, i32 0, i32 1
  %7 = load ptr, ptr %6, align 8, !tbaa !47
  %8 = icmp eq ptr %7, null
  br i1 %8, label %9, label %17

9:                                                ; preds = %2
  %10 = load ptr, ptr %4, align 8, !tbaa !43
  %11 = call ptr @ossl_check_OPENSSL_CSTRING_sk_type(ptr noundef %10)
  %12 = load ptr, ptr %3, align 8, !tbaa !31
  %13 = getelementptr inbounds nuw %struct.CONF_VALUE, ptr %12, i32 0, i32 0
  %14 = load ptr, ptr %13, align 8, !tbaa !49
  %15 = call ptr @ossl_check_OPENSSL_CSTRING_type(ptr noundef %14)
  %16 = call i32 @OPENSSL_sk_push(ptr noundef %11, ptr noundef %15)
  br label %17

17:                                               ; preds = %9, %2
  ret void
}