; Function Attrs: nounwind uwtable
define internal void @collect_section_name(ptr noundef readonly captures(none) %0, ptr noundef %1) #0 {
  %3 = getelementptr inbounds nuw i8, ptr %0, i64 8
  %4 = load ptr, ptr %3, align 8, !tbaa !31
  %5 = icmp eq ptr %4, null
  br i1 %5, label %6, label %9

6:                                                ; preds = %2
  %7 = load ptr, ptr %0, align 8, !tbaa !33
  %8 = tail call i32 @OPENSSL_sk_push(ptr noundef %1, ptr noundef %7) #15
  br label %9

9:                                                ; preds = %6, %2
  ret void
}